Certificate:
    Data:
        Version: 3 (0x2)
        Serial Number: 1 (0x1)
    Signature Algorithm: sha256WithRSAEncryption
        Issuer: C=US, ST=Unset, L=Unset, O=Unset, CN=www.example.com
        Validity
            Not Before: May  7 06:16:19 2015 GMT
            Not After : May  4 06:16:19 2025 GMT
        Subject: C=US, ST=Unset, O=Unset, CN=www.example.com
        Subject Public Key Info:
            Public Key Algorithm: rsaEncryption
                Public-Key: (2048 bit)
                Modulus:
                    00:cb:b0:05:4c:a3:61:91:82:a1:0a:b4:35:d5:42:
                    eb:fd:b2:08:b5:fc:4b:d5:f4:50:0a:8b:85:60:a2:
                    08:4e:22:72:ee:ef:fc:1a:30:de:5a:f1:63:d8:26:
                    fe:4a:bb:f6:0e:38:52:89:ae:87:ad:e6:34:62:c9:
                    d8:35:d5:c7:5b:7b:2a:0e:4f:b7:39:91:75:00:c8:
                    b3:d3:d2:45:0b:b5:65:b8:e0:37:f1:af:46:5e:51:
                    ce:6c:08:f7:7c:77:db:50:3b:9b:48:78:91:57:da:
                    dd:49:b4:ef:da:c8:63:15:a3:27:af:02:40:e2:4d:
                    80:10:af:0a:7e:62:45:97:51:a7:b2:c8:2d:4c:ef:
                    99:63:9f:5d:d4:01:9f:06:d2:e5:4a:5e:fd:09:28:
                    86:4f:cb:29:71:ab:c5:1f:de:90:ec:7b:b3:45:ec:
                    d9:9d:d0:0d:12:2d:a9:22:78:33:ac:da:df:be:6a:
                    e9:a6:5a:8f:74:c5:7b:da:c5:7f:c3:a2:58:32:8c:
                    35:a0:88:15:fd:44:5d:94:5c:a7:23:18:4c:9c:cc:
                    f3:19:0b:bb:42:85:1d:c2:42:90:de:af:43:5d:e1:
                    19:a9:fa:96:80:33:a6:e9:de:ec:56:56:f7:b3:aa:
                    36:1d:13:1b:2f:c2:14:f6:7f:6d:eb:04:f4:44:2c:
                    0a:b7
                Exponent: 65537 (0x10001)
        X509v3 extensions:
            X509v3 Basic Constraints: 
                CA:FALSE
            X509v3 Subject Key Identifier: 
                57:02:2F:95:84:4D:40:21:36:CC:3C:3D:D2:F9:D2:64:9A:BA:34:35
            X509v3 Authority Key Identifier: 
                keyid:08:63:A6:3A:A0:23:AA:FE:98:E4:B3:2E:47:00:E9:9D:8F:D5:FD:37

    Signature Algorithm: sha256WithRSAEncryption
         0f:64:7b:61:48:18:4a:14:a1:cb:3f:12:e1:1e:d1:8b:cc:9b:
         ff:ac:ad:6a:a8:46:f8:ff:cd:0d:9b:0a:00:8e:da:7a:5d:93:
         2b:d3:66:95:7f:7f:5f:3d:97:da:31:41:33:bb:7a:4b:ba:74:
         90:d1:5f:08:1e:88:2c:a4:39:52:d2:a8:f8:c2:a6:3a:1b:17:
         46:7b:da:9a:63:a1:d1:00:31:26:68:4e:20:97:c7:a4:ac:72:
         6c:ae:ef:f2:c1:22:3e:b6:1a:5f:ec:63:7c:ca:55:0f:6c:d3:
         f2:db:56:f7:fb:7d:1a:1a:2a:01:a5:bb:d6:11:1a:8f:a3:5b:
         df:dc:28:ac:71:bb:98:e8:86:ce:bb:b3:05:18:20:cf:56:e5:
         a9:c5:07:61:e5:79:6b:ba:9e:44:51:2b:5d:e2:e6:1f:24:f3:
         ba:71:56:d3:85:a0:6b:3e:77:22:92:f0:d1:81:d7:d5:2e:0e:
         b0:8f:bc:dc:26:bb:82:e9:03:22:81:25:d8:30:45:2a:c2:ac:
         fe:15:e4:72:6a:cb:7d:73:b1:56:11:2b:e1:60:f7:ee:ba:58:
         aa:a8:d2:d1:9c:47:c6:d1:b0:3d:cf:86:7f:f7:b9:89:52:03:
         73:58:7e:95:7b:07:79:aa:33:e3:e0:04:ab:17:57:f0:ba:bb:
         ab:53:94:24
-----BEGIN CERTIFICATE-----
MIIDZjCCAk6gAwIBAgIBATANBgkqhkiG9w0BAQsFADBXMQswCQYDVQQGEwJVUzEO
MAwGA1UECAwFVW5zZXQxDjAMBgNVBAcMBVVuc2V0MQ4wDAYDVQQKDAVVbnNldDEY
MBYGA1UEAwwPd3d3LmV4YW1wbGUuY29tMB4XDTE1MDUwNzA2MTYxOVoXDTI1MDUw
NDA2MTYxOVowRzELMAkGA1UEBhMCVVMxDjAMBgNVBAgMBVVuc2V0MQ4wDAYDVQQK
DAVVbnNldDEYMBYGA1UEAwwPd3d3LmV4YW1wbGUuY29tMIIBIjANBgkqhkiG9w0B
AQEFAAOCAQ8AMIIBCgKCAQEAy7AFTKNhkYKhCrQ11ULr/bIItfxL1fRQCouFYKII
TiJy7u/8GjDeWvFj2Cb+Srv2DjhSia6HreY0YsnYNdXHW3sqDk+3OZF1AMiz09JF
C7VluOA38a9GXlHObAj3fHfbUDubSHiRV9rdSbTv2shjFaMnrwJA4k2AEK8KfmJF
l1GnssgtTO+ZY59d1AGfBtLlSl79CSiGT8spcavFH96Q7HuzRezZndANEi2pIngz
rNrfvmrpplqPdMV72sV/w6JYMow1oIgV/URdlFynIxhMnMzzGQu7QoUdwkKQ3q9D
XeEZqfqWgDOm6d7sVlb3s6o2HRMbL8IU9n9t6wT0RCwKtwIDAQABo00wSzAJBgNV
HRMEAjAAMB0GA1UdDgQWBBRXAi+VhE1AITbMPD3S+dJkmro0NTAfBgNVHSMEGDAW
gBQIY6Y6oCOq/pjksy5HAOmdj9X9NzANBgkqhkiG9w0BAQsFAAOCAQEAD2R7YUgY
ShShyz8S4R7Ri8yb/6ytaqhG+P/NDZsKAI7ael2TK9NmlX9/Xz2X2jFBM7t6S7p0
kNFfCB6ILKQ5UtKo+MKmOhsXRnvammOh0QAxJmhOIJfHpKxybK7v8sEiPrYaX+xj
fMpVD2zT8ttW9/t9GhoqAaW71hEaj6Nb39worHG7mOiGzruzBRggz1blqcUHYeV5
a7qeRFErXeLmHyTzunFW04Wgaz53IpLw0YHX1S4OsI+83Ca7gukDIoEl2DBFKsKs
/hXkcmrLfXOxVhEr4WD37rpYqqjS0ZxHxtGwPc+Gf/e5iVIDc1h+lXsHeaoz4+AE
qxdX8Lq7q1OUJA==
-----END CERTIFICATE-----
